target datalayout = "e-m:e-p270:32:32-p271:32:32-p272:64:64-i64:64-i128:128-f80:128-n8:16:32:64-S128"
target triple = "x86_64-unknown-linux-gnu"

%"class.std::__cxx11::basic_string" = type { %"struct.std::__cxx11::basic_string<char>::_Alloc_hider", i64, %union.anon }
%"struct.std::__cxx11::basic_string<char>::_Alloc_hider" = type { ptr }
%union.anon = type { i64, [8 x i8] }
%"class.proxygen::HTTP2Codec" = type <{ %"class.proxygen::HTTPParallelCodec.base", [4 x i8], %"class.proxygen::HPACK::StreamingCallback", %"class.proxygen::HPACKCodec", %"struct.proxygen::http2::FrameHeader", [4 x i8], i64, %"class.folly::Optional", i8, i8, i8, [5 x i8], %"class.std::unordered_set", i16, [6 x i8], %"class.folly::IOBufQueue", %"class.folly::IOBufQueue", %"class.proxygen::HTTPSettings", %"class.proxygen::HTTPSettings", i8, [7 x i8], %"class.std::__cxx11::basic_string", i64, i64, %"class.proxygen::HeaderDecodeInfo", %"class.std::vector.39", %"class.folly::Optional.37", i8, i8, i8, i8, i8, i8, [2 x i8] }>
%"class.proxygen::HTTPParallelCodec.base" = type <{ %"class.proxygen::HTTPCodec", i8, [7 x i8], i64, i64, ptr, i64, i64, %"class.std::__cxx11::basic_string", i32 }>
%"class.proxygen::HTTPCodec" = type { ptr }
%"class.proxygen::HPACK::StreamingCallback" = type { ptr, ptr }
%"class.proxygen::HPACKCodec" = type { %"class.proxygen::HeaderCodec", %"class.proxygen::HPACKEncoder", %"class.proxygen::HPACKDecoder", %"class.std::vector" }
%"class.proxygen::HeaderCodec" = type { ptr, %"struct.proxygen::HTTPHeaderSize", i32, i64, ptr }
%"struct.proxygen::HTTPHeaderSize" = type { i32, i32, i32 }
%"class.proxygen::HPACKEncoder" = type { %"class.proxygen::HPACKEncoderBase.base", [7 x i8], %"class.proxygen::HPACKContext.base", [4 x i8] }
%"class.proxygen::HPACKEncoderBase.base" = type <{ ptr, %"class.proxygen::HPACKEncodeBuffer", i8 }>
%"class.proxygen::HPACKEncodeBuffer" = type <{ %"class.folly::IOBufQueue", ptr, %"class.folly::io::QueueAppender", i32, i32, i32, [4 x i8] }>
%"class.folly::io::QueueAppender" = type { %"class.folly::IOBufQueue::WritableRangeCache", i64 }
%"class.folly::IOBufQueue::WritableRangeCache" = type { %"struct.folly::IOBufQueue::WritableRangeCacheData", ptr }
%"struct.folly::IOBufQueue::WritableRangeCacheData" = type <{ %"struct.std::pair", i8, [7 x i8] }>
%"struct.std::pair" = type { ptr, ptr }
%"class.proxygen::HPACKContext.base" = type <{ %"class.proxygen::HeaderTable", i32 }>
%"class.proxygen::HeaderTable" = type { ptr, i32, i32, %"class.std::vector", i32, i32, i32, i8, %"class.folly::F14FastMap" }
%"class.folly::F14FastMap" = type { %"class.folly::f14::detail::F14VectorMapImpl" }
%"class.folly::f14::detail::F14VectorMapImpl" = type { %"class.folly::f14::detail::F14BasicMap" }
%"class.folly::f14::detail::F14BasicMap" = type { %"class.folly::f14::detail::F14Table" }
%"class.folly::f14::detail::F14Table" = type { %"class.folly::f14::detail::VectorContainerPolicy", ptr, %"struct.folly::f14::detail::SizeAndChunkShiftAndPackedBegin" }
%"class.folly::f14::detail::VectorContainerPolicy" = type { ptr }
%"struct.folly::f14::detail::SizeAndChunkShiftAndPackedBegin" = type { %"struct.folly::f14::detail::PackedSizeAndChunkShift" }
%"struct.folly::f14::detail::PackedSizeAndChunkShift" = type { i64 }
%"class.proxygen::HPACKDecoder" = type <{ %"class.proxygen::HPACKDecoderBase", %"class.proxygen::HPACKContext.base", [4 x i8] }>
%"class.proxygen::HPACKDecoderBase" = type { i8, i32, i64 }
%"class.std::vector" = type { %"struct.std::_Vector_base" }
%"struct.std::_Vector_base" = type { %"struct.std::_Vector_base<proxygen::HPACKHeader, std::allocator<proxygen::HPACKHeader>>::_Vector_impl" }
%"struct.std::_Vector_base<proxygen::HPACKHeader, std::allocator<proxygen::HPACKHeader>>::_Vector_impl" = type { %"struct.std::_Vector_base<proxygen::HPACKHeader, std::allocator<proxygen::HPACKHeader>>::_Vector_impl_data" }
%"struct.std::_Vector_base<proxygen::HPACKHeader, std::allocator<proxygen::HPACKHeader>>::_Vector_impl_data" = type { ptr, ptr, ptr }
%"struct.proxygen::http2::FrameHeader" = type { i32, i32, i8, i8, i16 }
%"class.folly::Optional" = type { %"struct.folly::Optional<unsigned long>::StorageTriviallyDestructible" }
%"struct.folly::Optional<unsigned long>::StorageTriviallyDestructible" = type <{ %union.anon.15, i8, [7 x i8] }>
%union.anon.15 = type { i64 }
%"class.std::unordered_set" = type { %"class.std::_Hashtable" }
%"class.std::_Hashtable" = type { ptr, i64, %"struct.std::__detail::_Hash_node_base", i64, %"struct.std::__detail::_Prime_rehash_policy", ptr }
%"struct.std::__detail::_Hash_node_base" = type { ptr }
%"struct.std::__detail::_Prime_rehash_policy" = type { float, i64 }
%"class.folly::IOBufQueue" = type { %"struct.folly::IOBufQueue::Options", i64, %"class.std::unique_ptr", ptr, ptr, %"struct.folly::IOBufQueue::WritableRangeCacheData", ptr }
%"struct.folly::IOBufQueue::Options" = type { i8 }
%"class.std::unique_ptr" = type { %"struct.std::__uniq_ptr_data" }
%"struct.std::__uniq_ptr_data" = type { %"class.std::__uniq_ptr_impl" }
%"class.std::__uniq_ptr_impl" = type { %"class.std::tuple" }
%"class.std::tuple" = type { %"struct.std::_Tuple_impl" }
%"struct.std::_Tuple_impl" = type { %"struct.std::_Head_base.6" }
%"struct.std::_Head_base.6" = type { ptr }
%"class.proxygen::HTTPSettings" = type { %"class.std::vector.24" }
%"class.std::vector.24" = type { %"struct.std::_Vector_base.25" }
%"struct.std::_Vector_base.25" = type { %"struct.std::_Vector_base<proxygen::HTTPSetting, std::allocator<proxygen::HTTPSetting>>::_Vector_impl" }
%"struct.std::_Vector_base<proxygen::HTTPSetting, std::allocator<proxygen::HTTPSetting>>::_Vector_impl" = type { %"struct.std::_Vector_base<proxygen::HTTPSetting, std::allocator<proxygen::HTTPSetting>>::_Vector_impl_data" }
%"struct.std::_Vector_base<proxygen::HTTPSetting, std::allocator<proxygen::HTTPSetting>>::_Vector_impl_data" = type { ptr, ptr, ptr }
%"class.proxygen::HeaderDecodeInfo" = type <{ %"class.std::unique_ptr.29", %"class.proxygen::HTTPRequestVerifier", %"class.std::__cxx11::basic_string", %"class.std::__cxx11::basic_string", i8, i8, i8, i8, i8, i8, i8, i8, i8, [3 x i8], %"class.folly::Optional.37", [4 x i8] }>
%"class.std::unique_ptr.29" = type { %"struct.std::__uniq_ptr_data.30" }
%"struct.std::__uniq_ptr_data.30" = type { %"class.std::__uniq_ptr_impl.31" }
%"class.std::__uniq_ptr_impl.31" = type { %"class.std::tuple.32" }
%"class.std::tuple.32" = type { %"struct.std::_Tuple_impl.33" }
%"struct.std::_Tuple_impl.33" = type { %"struct.std::_Head_base.36" }
%"struct.std::_Head_base.36" = type { ptr }
%"class.proxygen::HTTPRequestVerifier" = type <{ %"class.std::__cxx11::basic_string", ptr, i8, i8, i8, i8, i8, [3 x i8] }>
%"class.std::vector.39" = type { %"struct.std::_Vector_base.40" }
%"struct.std::_Vector_base.40" = type { %"struct.std::_Vector_base<unsigned long, std::allocator<unsigned long>>::_Vector_impl" }
%"struct.std::_Vector_base<unsigned long, std::allocator<unsigned long>>::_Vector_impl" = type { %"struct.std::_Vector_base<unsigned long, std::allocator<unsigned long>>::_Vector_impl_data" }
%"struct.std::_Vector_base<unsigned long, std::allocator<unsigned long>>::_Vector_impl_data" = type { ptr, ptr, ptr }
%"class.folly::Optional.37" = type { %"struct.folly::Optional<unsigned int>::StorageTriviallyDestructible" }
%"struct.folly::Optional<unsigned int>::StorageTriviallyDestructible" = type <{ %union.anon.38, i8, [3 x i8] }>
%union.anon.38 = type { i32 }
%"class.proxygen::HTTPParallelCodec" = type <{ %"class.proxygen::HTTPCodec", i8, [7 x i8], i64, i64, ptr, i64, i64, %"class.std::__cxx11::basic_string", i32, [4 x i8] }>
%"class.std::exception" = type { ptr }
%"class.proxygen::HPACKContext" = type <{ %"class.proxygen::HeaderTable", i32, [4 x i8] }>
%"class.folly::OptionalEmptyException" = type { %"class.std::runtime_error" }
%"class.std::runtime_error" = type { %"class.std::exception", %"struct.std::__cow_string" }
%"struct.std::__cow_string" = type { %union.anon.154 }
%union.anon.154 = type { ptr }

@_ZTIN5folly22OptionalEmptyExceptionE = linkonce_odr constant { ptr, ptr, ptr } { ptr getelementptr inbounds (ptr, ptr @_ZTVN10__cxxabiv120__si_class_type_infoE, i64 2), ptr @_ZTSN5folly22OptionalEmptyExceptionE, ptr @_ZTISt13runtime_error }, comdat, align 8
@_ZTVN5folly22OptionalEmptyExceptionE = linkonce_odr unnamed_addr constant { [5 x ptr] } { [5 x ptr] [ptr null, ptr @_ZTIN5folly22OptionalEmptyExceptionE, ptr @_ZN5folly22OptionalEmptyExceptionD2Ev, ptr @_ZN5folly22OptionalEmptyExceptionD0Ev, ptr @_ZNKSt13runtime_error4whatEv] }, comdat, align 8
@.str.183 = private unnamed_addr constant [35 x i8] c"Empty Optional cannot be unwrapped\00", align 1

; Function Attrs: mustprogress nounwind uwtable
define linkonce_odr void @_ZN5folly22OptionalEmptyExceptionC2EOS0_(ptr noundef nonnull align 8 dereferenceable(16) %this, ptr noundef nonnull align 8 dereferenceable(16) %0) unnamed_addr #5 comdat align 2 {
entry:
  %this.addr = alloca ptr, align 8
  %.addr = alloca ptr, align 8
  store ptr %this, ptr %this.addr, align 8
  store ptr %0, ptr %.addr, align 8
  %this1 = load ptr, ptr %this.addr, align 8
  %1 = load ptr, ptr %.addr, align 8
  call void @_ZNSt13runtime_errorC2EOS_(ptr noundef nonnull align 8 dereferenceable(16) %this1, ptr noundef nonnull align 8 dereferenceable(16) %1) #3
  store ptr getelementptr inbounds ({ [5 x ptr] }, ptr @_ZTVN5folly22OptionalEmptyExceptionE, i32 0, i32 0, i32 2), ptr %this1, align 8
  ret void
}

; Function Attrs: mustprogress nounwind uwtable
define linkonce_odr void @_ZN5folly22OptionalEmptyExceptionD2Ev(ptr noundef nonnull align 8 dereferenceable(16) %this) unnamed_addr #5 comdat align 2 {
entry:
  %this.addr = alloca ptr, align 8
  store ptr %this, ptr %this.addr, align 8
  %this1 = load ptr, ptr %this.addr, align 8
  call void @_ZNSt13runtime_errorD2Ev(ptr noundef nonnull align 8 dereferenceable(16) %this1) #3
  ret void
}

; Function Attrs: cold mustprogress noreturn uwtable
define linkonce_odr void @_ZN5folly15throw_exceptionINS_22OptionalEmptyExceptionEEEvOT_(ptr noundef nonnull align 8 dereferenceable(16) %ex) #17 comdat {
entry:
  %ex.addr = alloca ptr, align 8
  store ptr %ex, ptr %ex.addr, align 8
  %exception = call ptr @__cxa_allocate_exception(i64 16) #3
  %0 = load ptr, ptr %ex.addr, align 8
  call void @_ZN5folly22OptionalEmptyExceptionC2EOS0_(ptr noundef nonnull align 8 dereferenceable(16) %exception, ptr noundef nonnull align 8 dereferenceable(16) %0) #3
  call void @__cxa_throw(ptr %exception, ptr @_ZTIN5folly22OptionalEmptyExceptionE, ptr @_ZN5folly22OptionalEmptyExceptionD2Ev) #23
  unreachable
}

; Function Attrs: mustprogress uwtable
define linkonce_odr void @_ZN5folly22OptionalEmptyExceptionC2Ev(ptr noundef nonnull align 8 dereferenceable(16) %this) unnamed_addr #4 comdat align 2 {
entry:
  %this.addr = alloca ptr, align 8
  store ptr %this, ptr %this.addr, align 8
  %this1 = load ptr, ptr %this.addr, align 8
  call void @_ZNSt13runtime_errorC2EPKc(ptr noundef nonnull align 8 dereferenceable(16) %this1, ptr noundef @.str.183)
  store ptr getelementptr inbounds ({ [5 x ptr] }, ptr @_ZTVN5folly22OptionalEmptyExceptionE, i32 0, i32 0, i32 2), ptr %this1, align 8
  ret void
}

; Function Attrs: cold mustprogress noreturn uwtable
define linkonce_odr void @_ZN5folly6detail16throw_exception_INS_22OptionalEmptyExceptionEJEEEvDpT0_() #17 comdat personality ptr @__gxx_personality_v0 {
entry:
  %ref.tmp = alloca %"class.folly::OptionalEmptyException", align 8
  %exn.slot = alloca ptr, align 8
  %ehselector.slot = alloca i32, align 4
  call void @_ZN5folly22OptionalEmptyExceptionC2Ev(ptr noundef nonnull align 8 dereferenceable(16) %ref.tmp)
  invoke void @_ZN5folly15throw_exceptionINS_22OptionalEmptyExceptionEEEvOT_(ptr noundef nonnull align 8 dereferenceable(16) %ref.tmp) #24
          to label %invoke.cont unwind label %lpad

invoke.cont:                                      ; preds = %entry
  unreachable

lpad:                                             ; preds = %entry
  %0 = landingpad { ptr, i32 }
          cleanup
  %1 = extractvalue { ptr, i32 } %0, 0
  store ptr %1, ptr %exn.slot, align 8
  %2 = extractvalue { ptr, i32 } %0, 1
  store i32 %2, ptr %ehselector.slot, align 4
  call void @_ZN5folly22OptionalEmptyExceptionD2Ev(ptr noundef nonnull align 8 dereferenceable(16) %ref.tmp) #3
  br label %eh.resume

eh.resume:                                        ; preds = %lpad
  %exn = load ptr, ptr %exn.slot, align 8
  %sel = load i32, ptr %ehselector.slot, align 4
  %lpad.val = insertvalue { ptr, i32 } poison, ptr %exn, 0
  %lpad.val1 = insertvalue { ptr, i32 } %lpad.val, i32 %sel, 1
  resume { ptr, i32 } %lpad.val1
}

; Function Attrs: noreturn nounwind uwtable
define linkonce_odr hidden void @__clang_call_terminate(ptr noundef %0) #11 comdat {
  %2 = call ptr @__cxa_begin_catch(ptr %0) #3
  call void @_ZSt9terminatev() #21
  unreachable
}

; Function Attrs: mustprogress nounwind uwtable
define linkonce_odr void @_ZN5folly8OptionalIjE28StorageTriviallyDestructible5clearEv(ptr noundef nonnull align 4 dereferenceable(5) %this) #5 comdat align 2 {
entry:
  %this.addr = alloca ptr, align 8
  store ptr %this, ptr %this.addr, align 8
  %this1 = load ptr, ptr %this.addr, align 8
  %hasValue = getelementptr inbounds %"struct.folly::Optional<unsigned int>::StorageTriviallyDestructible", ptr %this1, i32 0, i32 1
  store i8 0, ptr %hasValue, align 4
  ret void
}

; Function Attrs: mustprogress uwtable
define linkonce_odr void @_ZNK5folly8OptionalIjE13require_valueEv(ptr noundef nonnull align 4 dereferenceable(8) %this) #4 comdat align 2 {
entry:
  %this.addr = alloca ptr, align 8
  store ptr %this, ptr %this.addr, align 8
  %this1 = load ptr, ptr %this.addr, align 8
  %storage_ = getelementptr inbounds %"class.folly::Optional.37", ptr %this1, i32 0, i32 0
  %hasValue = getelementptr inbounds %"struct.folly::Optional<unsigned int>::StorageTriviallyDestructible", ptr %storage_, i32 0, i32 1
  %0 = load i8, ptr %hasValue, align 4
  %tobool = trunc i8 %0 to i1
  br i1 %tobool, label %if.end, label %if.then

if.then:                                          ; preds = %entry
  call void @_ZN5folly6detail16throw_exception_INS_22OptionalEmptyExceptionEJEEEvDpT0_() #24
  unreachable

_ZN5folly15throw_exceptionINS_22OptionalEmptyExceptionEJEEEvDpOT0_.exit: ; No predecessors!
  unreachable

if.end:                                           ; preds = %entry
  ret void
}

; Function Attrs: mustprogress nounwind uwtable
define linkonce_odr void @_ZN5folly8OptionalIjE5resetEv(ptr noundef nonnull align 4 dereferenceable(8) %this) #5 comdat align 2 personality ptr @__gxx_personality_v0 {
entry:
  %this.addr = alloca ptr, align 8
  store ptr %this, ptr %this.addr, align 8
  %this1 = load ptr, ptr %this.addr, align 8
  %storage_ = getelementptr inbounds %"class.folly::Optional.37", ptr %this1, i32 0, i32 0
  invoke void @_ZN5folly8OptionalIjE28StorageTriviallyDestructible5clearEv(ptr noundef nonnull align 4 dereferenceable(5) %storage_)
          to label %invoke.cont unwind label %terminate.lpad

invoke.cont:                                      ; preds = %entry
  ret void

terminate.lpad:                                   ; preds = %entry
  %0 = landingpad { ptr, i32 }
          catch ptr null
  %1 = extractvalue { ptr, i32 } %0, 0
  call void @__clang_call_terminate(ptr %1) #21
  unreachable
}

; Function Attrs: mustprogress uwtable
define linkonce_odr void @_ZN8proxygen12HPACKDecoder21setHeaderTableMaxSizeEj(ptr noundef nonnull align 8 dereferenceable(100) %this, i32 noundef %maxSize) #4 comdat align 2 {
entry:
  %this.addr = alloca ptr, align 8
  %maxSize.addr = alloca i32, align 4
  store ptr %this, ptr %this.addr, align 8
  store i32 %maxSize, ptr %maxSize.addr, align 4
  %this1 = load ptr, ptr %this.addr, align 8
  %add.ptr = getelementptr inbounds i8, ptr %this1, i64 16
  %table_ = getelementptr inbounds %"class.proxygen::HPACKContext", ptr %add.ptr, i32 0, i32 0
  %0 = load i32, ptr %maxSize.addr, align 4
  call void @_ZN8proxygen16HPACKDecoderBase21setHeaderTableMaxSizeERNS_11HeaderTableEj(ptr noundef nonnull align 8 dereferenceable(16) %this1, ptr noundef nonnull align 8 dereferenceable(80) %table_, i32 noundef %0)
  ret void
}

; Function Attrs: mustprogress uwtable
define linkonce_odr noundef nonnull align 4 dereferenceable(4) ptr @_ZNR5folly8OptionalIjE5valueEv(ptr noundef nonnull align 4 dereferenceable(8) %this) #4 comdat align 2 {
entry:
  %this.addr = alloca ptr, align 8
  store ptr %this, ptr %this.addr, align 8
  %this1 = load ptr, ptr %this.addr, align 8
  call void @_ZNK5folly8OptionalIjE13require_valueEv(ptr noundef nonnull align 4 dereferenceable(8) %this1)
  %storage_ = getelementptr inbounds %"class.folly::Optional.37", ptr %this1, i32 0, i32 0
  %0 = getelementptr inbounds %"struct.folly::Optional<unsigned int>::StorageTriviallyDestructible", ptr %storage_, i32 0, i32 0
  ret ptr %0
}

; Function Attrs: mustprogress nounwind uwtable
define linkonce_odr noundef zeroext i1 @_ZNK5folly8OptionalIjE9has_valueEv(ptr noundef nonnull align 4 dereferenceable(8) %this) #5 comdat align 2 {
entry:
  %this.addr = alloca ptr, align 8
  store ptr %this, ptr %this.addr, align 8
  %this1 = load ptr, ptr %this.addr, align 8
  %storage_ = getelementptr inbounds %"class.folly::Optional.37", ptr %this1, i32 0, i32 0
  %hasValue = getelementptr inbounds %"struct.folly::Optional<unsigned int>::StorageTriviallyDestructible", ptr %storage_, i32 0, i32 1
  %0 = load i8, ptr %hasValue, align 4
  %tobool = trunc i8 %0 to i1
  ret i1 %tobool
}

; Function Attrs: mustprogress nounwind uwtable
define linkonce_odr noundef nonnull align 4 dereferenceable(8) ptr @_ZN5folly8OptionalIjEaSENS_4NoneE(ptr noundef nonnull align 4 dereferenceable(8) %this) #5 comdat align 2 {
entry:
  %this.addr = alloca ptr, align 8
  store ptr %this, ptr %this.addr, align 8
  %this1 = load ptr, ptr %this.addr, align 8
  call void @_ZN5folly8OptionalIjE5resetEv(ptr noundef nonnull align 4 dereferenceable(8) %this1) #3
  ret ptr %this1
}

; Function Attrs: mustprogress uwtable
define linkonce_odr void @_ZN8proxygen10HPACKCodec28setDecoderHeaderTableMaxSizeEj(ptr noundef nonnull align 8 dereferenceable(408) %this, i32 noundef %size) #4 comdat align 2 {
entry:
  %this.addr = alloca ptr, align 8
  %size.addr = alloca i32, align 4
  store ptr %this, ptr %this.addr, align 8
  store i32 %size, ptr %size.addr, align 4
  %this1 = load ptr, ptr %this.addr, align 8
  %decoder_ = getelementptr inbounds %"class.proxygen::HPACKCodec", ptr %this1, i32 0, i32 2
  %0 = load i32, ptr %size.addr, align 4
  call void @_ZN8proxygen12HPACKDecoder21setHeaderTableMaxSizeEj(ptr noundef nonnull align 8 dereferenceable(100) %decoder_, i32 noundef %0)
  ret void
}

; Function Attrs: mustprogress uwtable
define linkonce_odr noundef nonnull align 4 dereferenceable(4) ptr @_ZNR5folly8OptionalIjEdeEv(ptr noundef nonnull align 4 dereferenceable(8) %this) #4 comdat align 2 {
entry:
  %this.addr = alloca ptr, align 8
  store ptr %this, ptr %this.addr, align 8
  %this1 = load ptr, ptr %this.addr, align 8
  %call = call noundef nonnull align 4 dereferenceable(4) ptr @_ZNR5folly8OptionalIjE5valueEv(ptr noundef nonnull align 4 dereferenceable(8) %this1)
  ret ptr %call
}

; Function Attrs: mustprogress nounwind uwtable
define linkonce_odr noundef zeroext i1 @_ZNK5folly8OptionalIjEcvbEv(ptr noundef nonnull align 4 dereferenceable(8) %this) #5 comdat align 2 {
entry:
  %this.addr = alloca ptr, align 8
  store ptr %this, ptr %this.addr, align 8
  %this1 = load ptr, ptr %this.addr, align 8
  %call = call noundef zeroext i1 @_ZNK5folly8OptionalIjE9has_valueEv(ptr noundef nonnull align 4 dereferenceable(8) %this1) #3
  ret i1 %call
}

; Function Attrs: mustprogress uwtable
define void @_ZN8proxygen10HTTP2Codec17handleSettingsAckEv(ptr noundef nonnull align 8 dereferenceable(1062) %this) #4 align 2 {
entry:
  %this.addr = alloca ptr, align 8
  store ptr %this, ptr %this.addr, align 8
  %this1 = load ptr, ptr %this.addr, align 8
  %pendingTableMaxSize_ = getelementptr inbounds %"class.proxygen::HTTP2Codec", ptr %this1, i32 0, i32 26
  %call = call noundef zeroext i1 @_ZNK5folly8OptionalIjEcvbEv(ptr noundef nonnull align 4 dereferenceable(8) %pendingTableMaxSize_) #3
  br i1 %call, label %if.then, label %if.end

if.then:                                          ; preds = %entry
  %headerCodec_ = getelementptr inbounds %"class.proxygen::HTTP2Codec", ptr %this1, i32 0, i32 3
  %pendingTableMaxSize_2 = getelementptr inbounds %"class.proxygen::HTTP2Codec", ptr %this1, i32 0, i32 26
  %call3 = call noundef nonnull align 4 dereferenceable(4) ptr @_ZNR5folly8OptionalIjEdeEv(ptr noundef nonnull align 4 dereferenceable(8) %pendingTableMaxSize_2)
  %0 = load i32, ptr %call3, align 4
  call void @_ZN8proxygen10HPACKCodec28setDecoderHeaderTableMaxSizeEj(ptr noundef nonnull align 8 dereferenceable(408) %headerCodec_, i32 noundef %0)
  %pendingTableMaxSize_4 = getelementptr inbounds %"class.proxygen::HTTP2Codec", ptr %this1, i32 0, i32 26
  %call5 = call noundef nonnull align 4 dereferenceable(8) ptr @_ZN5folly8OptionalIjEaSENS_4NoneE(ptr noundef nonnull align 4 dereferenceable(8) %pendingTableMaxSize_4) #3
  br label %if.end

if.end:                                           ; preds = %if.then, %entry
  %callback_ = getelementptr inbounds %"class.proxygen::HTTPParallelCodec", ptr %this1, i32 0, i32 5
  %1 = load ptr, ptr %callback_, align 8
  %tobool = icmp ne ptr %1, null
  br i1 %tobool, label %if.then6, label %if.end8

if.then6:                                         ; preds = %if.end
  %callback_7 = getelementptr inbounds %"class.proxygen::HTTPParallelCodec", ptr %this1, i32 0, i32 5
  %2 = load ptr, ptr %callback_7, align 8
  %vtable = load ptr, ptr %2, align 8
  %vfn = getelementptr inbounds ptr, ptr %vtable, i64 18
  %3 = load ptr, ptr %vfn, align 8
  call void %3(ptr noundef nonnull align 8 dereferenceable(8) %2)
  br label %if.end8

if.end8:                                          ; preds = %if.then6, %if.end
  ret void
}