; Function Attrs: mustprogress uwtable
define void @_ZN8proxygen10HTTP2Codec17handleSettingsAckEv(ptr noundef nonnull align 8 dereferenceable(1062) %this) local_unnamed_addr #3 align 2 personality ptr @__gxx_personality_v0 {
entry:
  %hasValue.i.i = getelementptr inbounds i8, ptr %this, i64 1052
  %0 = load i8, ptr %hasValue.i.i, align 4
  %1 = and i8 %0, 1
  %tobool.i.i.not = icmp eq i8 %1, 0
  br i1 %tobool.i.i.not, label %if.end, label %_ZNR5folly8OptionalIjEdeEv.exit

_ZNR5folly8OptionalIjEdeEv.exit:                  ; preds = %entry
  %pendingTableMaxSize_ = getelementptr inbounds i8, ptr %this, i64 1048
  %2 = load i32, ptr %pendingTableMaxSize_, align 8
  %decoder_.i = getelementptr inbounds i8, ptr %this, i64 392
  %add.ptr.i.i = getelementptr inbounds i8, ptr %this, i64 408
  tail call void @_ZN8proxygen16HPACKDecoderBase21setHeaderTableMaxSizeERNS_11HeaderTableEj(ptr noundef nonnull align 8 dereferenceable(16) %decoder_.i, ptr noundef nonnull align 8 dereferenceable(80) %add.ptr.i.i, i32 noundef %2)
  store i8 0, ptr %hasValue.i.i, align 4
  br label %if.end

if.end:                                           ; preds = %_ZNR5folly8OptionalIjEdeEv.exit, %entry
  %callback_ = getelementptr inbounds i8, ptr %this, i64 32
  %3 = load ptr, ptr %callback_, align 8
  %tobool.not = icmp eq ptr %3, null
  br i1 %tobool.not, label %if.end8, label %if.then6

if.then6:                                         ; preds = %if.end
  %vtable = load ptr, ptr %3, align 8
  %vfn = getelementptr inbounds i8, ptr %vtable, i64 144
  %4 = load ptr, ptr %vfn, align 8
  tail call void %4(ptr noundef nonnull align 8 dereferenceable(8) %3)
  br label %if.end8

if.end8:                                          ; preds = %if.then6, %if.end
  ret void
}